; Function Attrs: mustprogress uwtable
define dso_local noundef zeroext i1 @_ZN5cmELF9GetSONameERNSt7__cxx1112basic_stringIcSt11char_traitsIcESaIcEEE(ptr nocapture noundef nonnull readonly align 8 dereferenceable(40) %0, ptr noundef nonnull align 8 dereferenceable(32) %1) local_unnamed_addr #0 align 2 {
  %3 = load ptr, ptr %0, align 8
  %.not.i.i = icmp eq ptr %3, null
  br i1 %.not.i.i, label %_ZN5cmELF9GetSONameEv.exit.thread, label %_ZNK5cmELF5ValidEv.exit.i

_ZNK5cmELF5ValidEv.exit.i:                        ; preds = %2
  %4 = getelementptr inbounds i8, ptr %3, i64 28
  %5 = load i32, ptr %4, align 4
  %cond.i = icmp eq i32 %5, 3
  br i1 %cond.i, label %_ZN5cmELF9GetSONameEv.exit, label %_ZN5cmELF9GetSONameEv.exit.thread

_ZN5cmELF9GetSONameEv.exit:                       ; preds = %_ZNK5cmELF5ValidEv.exit.i
  %6 = load ptr, ptr %3, align 8
  %7 = getelementptr inbounds i8, ptr %6, i64 48
  %8 = load ptr, ptr %7, align 8
  %9 = tail call noundef ptr %8(ptr noundef nonnull align 8 dereferenceable(88) %3, i32 noundef 14)
  %.not.not = icmp eq ptr %9, null
  br i1 %.not.not, label %_ZN5cmELF9GetSONameEv.exit.thread, label %10

10:                                               ; preds = %_ZN5cmELF9GetSONameEv.exit
  %11 = tail call noundef nonnull align 8 dereferenceable(32) ptr @_ZNSt7__cxx1112basic_stringIcSt11char_traitsIcESaIcEEaSERKS4_(ptr noundef nonnull align 8 dereferenceable(32) %1, ptr noundef nonnull align 8 dereferenceable(32) %9)
  br label %_ZN5cmELF9GetSONameEv.exit.thread

_ZN5cmELF9GetSONameEv.exit.thread:                ; preds = %_ZNK5cmELF5ValidEv.exit.i, %2, %_ZN5cmELF9GetSONameEv.exit, %10
  %.not8 = phi i1 [ false, %_ZN5cmELF9GetSONameEv.exit ], [ true, %10 ], [ false, %2 ], [ false, %_ZNK5cmELF5ValidEv.exit.i ]
  ret i1 %.not8
}